(dp0
S'users'
p1
(dp2
S'anonymous'
p3
(dp4
S'info'
p5
(dp6
S'ssl'
p7
NsS'password'
p8
NsS'authlevel'
p9
S'authlevel none'
p10
ssS'connectionHistory'
p11
(dp12
S'maxConnectionsStored'
p13
I10
sS'lastConnections'
p14
NsS'numConnections'
p15
(dp16
S'web'
p17
I0
sS'lbr'
p18
I0
sS'cli'
p19
I0
sssS'privileges'
p20
(dp21
S'motes'
p22
(dp23
S'*'
p24
(dp25
S'put'
p26
S'yes'
p27
sS'get'
p28
g27
sS'delete'
p29
g27
sssS'networks'
p30
(dp31
g24
(dp32
g28
g27
sssS'apps'
p33
(dp34
g24
(dp35
g26
g27
sg28
g27
sg29
g27
sssS'system'
p36
(dp37
g28
g27
ssS'testResults'
p38
(dp39
g24
(dp40
g28
g27
sg29
g27
ssssS'activeConnections'
p41
NsssS'firewall'
p42
(dp43
S'/dev/tty.usbserial-00003014D'
p44
(dp45
S'info'
p46
(dp47
S'defautRule'
p48
S'deny'
p49
ssS'rules'
p50
Nsssg33
(dp51
S'DC2126A'
p52
(dp53
S'fromMote'
p54
(dp55
S'dataFields'
p56
(dp57
S'fieldFormats'
p58
S'>HLH'
p59
sS'fieldNames'
p60
(lp61
S'cmdId'
p62
aS'temperature'
p63
aS'adcValue'
p64
asssS'resource'
p65
I60102
sS'description'
p66
S'Received and parses data from a DC2126A board.'
p67
sS'transport'
p68
S'UDP'
p69
sS'toMote'
p70
(dp71
g56
(dp72
g58
Nsg60
NssssS'OAPTemperature'
p73
(dp74
g54
(dp75
g56
(dp76
g58
S'>h'
p77
sg60
(lp78
g63
asssg65
(I5
tp79
sg66
S'This application is built into the default SmartMesh IP mote firmware and reports temperature periodically.'
p80
sg68
S'OAP'
p81
sg70
(dp82
g56
(dp83
g58
S'>l'
p84
sg60
(lp85
S'rate'
p86
assssS'OAPLED'
p87
(dp88
g54
(dp89
g56
(dp90
g58
Nsg60
Nsssg65
(I2
I3
tp91
sg66
S'This application is built into the default SmartMesh IP mote firmware and turns an LED on/off.'
p92
sg68
g81
sg70
(dp93
g56
(dp94
g58
S'>b'
p95
sg60
(lp96
S'status'
p97
assssS'LIS331'
p98
(dp99
g54
(dp100
g56
(dp101
g58
S'>hhh'
p102
sg60
(lp103
S'x'
p104
aS'y'
p105
aS'z'
p106
asssg65
I60103
sg66
S'Receives and parses data from a mote running the LIS331 application.'
p107
sg68
g69
sg70
(dp108
g56
(dp109
g58
Nsg60
Nsssssg36
(dp110
g5
(dp111
S'starttimes'
p112
(dp113
S'laststarttimes'
p114
(dp115
F1535366641.334453
NsF1535521915.117693
NsF1535521748.525081
NssS'totalnumrestarts'
p116
I3
sS'maxnumrestartsstored'
p117
I10
ssS'adminpassword'
p118
S'd033e22ae348aeb5660fc2140aec35850c4da997'
p119
ssS'publishers'
p120
(dp121
S'xively'
p122
(dp123
S'xivelyApiKey'
p124
NssS'google'
p125
(dp126
S'worksheetName'
p127
NsS'googleUsername'
p128
NsS'googlePassword'
p129
NsS'spreadsheetKey'
p130
NsssS'managerConnections'
p131
(dp132
g44
(dp133
S'state'
p134
S'active'
p135
sS'reason'
p136
S''
p137
sssS'demoMode'
p138
I01
sS'modules'
p139
(dp140
S'module LBR'
p141
S'off'
p142
sS'module GATEWAY'
p143
S'on'
p144
sS'module DATACONNECTOR'
p145
g144
ssS'systemevents'
p146
(dp147
S'default data loaded'
p148
F1535366641.326816
sS'backup data loaded'
p149
F1535521915.116717
ssS'persistence'
p150
(dp151
S'persistence file'
p152
g144
ssS'fastMode'
p153
I00
ssg38
(dp154
g44
(dp155
g46
(dp156
S'testperiod'
p157
I3600
ssS'results'
p158
(dp159
S'_nettest_oneSingleParentMote'
p160
(dp161
S'lastSuccess'
p162
(dp163
S'timestamp'
p164
F1535571320.722725
sS'description'
p165
S'PASS:<br/>only mote 00-17-0d-00-00-31-55-ff has a single parent'
p166
ssS'lastFailure'
p167
(dp168
g164
Nsg165
NssS'last'
p169
(dp170
g164
F1535571320.722725
sS'outcome'
p171
S'PASS'
p172
sg165
g166
ssg165
S'\n        <p>\n            This test verifies that there is exactly mote with only one parent.\n        </p>\n        <p>\n            Graph theory indicates that, when building a bi-DAG, exactly one\n            node ends up with one parent (it will be a one-hop neighbor of the\n            root). This test verifies that this is the case in this network.\n        </p>\n        <p>\n            This test is run once for the whole network.\n        </p>\n        '
p173
sS'history'
p174
(lp175
g172
assS'_nettest_numLinks'
p176
(dp177
g162
(dp178
g164
F1535571320.719778
sg165
S'PASS:<br/>mote 00-17-0d-00-00-31-59-39 has 4 links, less than maximum 180<br/>mote 00-17-0d-00-00-31-55-ff has 8 links, less than maximum 180<br/>mote 00-17-0d-00-00-31-48-d2 has 4 links, less than maximum 180<br/>AP 00-17-0d-00-00-58-30-3b has 5 RX links, less than maximum 140<br/>mote 00-17-0d-00-00-31-57-54 has 6 links, less than maximum 180'
p179
ssg167
(dp180
g164
Nsg165
Nssg169
(dp181
g164
F1535571320.719778
sg171
g172
sg165
g179
ssg165
S'\n        <p>\n            This test verifies that the number of links assigned to each mote\n            does not exceed the maximum limit.\n        </p>\n        <p>\n            The manager is never supposed to allocate more than MAX_AP_RXLINKS\n            receive links to the AP, nor more than MAX_MOTE_LINKS links (both\n            transmit and receive) for a non-AP mote.\n        </p>\n        <p>\n            This test is run once for each node in the network (both AP and\n            mote).\n        </p>\n        '
p182
sg174
(lp183
g172
assS'_nettest_multipleJoins'
p184
(dp185
g162
(dp186
g164
F1535571320.70766
sg165
S'PASS</b>:<br/>- 00-17-0d-00-00-31-59-39 has no numOperationalEvents parameters, but its state is 4<br/>- 00-17-0d-00-00-31-55-ff has no numOperationalEvents parameters, but its state is 4<br/>- 00-17-0d-00-00-31-48-d2 has no numOperationalEvents parameters, but its state is 4<br/>- 00-17-0d-00-00-58-30-3b has no numOperationalEvents parameters, but its state is 4<br/>- 00-17-0d-00-00-31-57-54 has no numOperationalEvents parameters, but its state is 4'
p187
ssg167
(dp188
g164
Nsg165
Nssg169
(dp189
g164
F1535571320.70766
sg171
g172
sg165
g187
ssg165
S'\n        <p>\n            This test verifies that each mote has joined exactly once.\n        </p>\n        <p>\n            In a normal deployment, all motes should join exactly once. Joining\n            more than once may indicate a mote reset.\n        </p>\n        <p>\n            This test is run once for each node in the network (both AP and\n            mote).\n        </p>\n        '
p190
sg174
(lp191
g172
assS'_nettest_stabilityVsRssi'
p192
(dp193
g162
(dp194
g164
Nsg165
Nssg167
(dp195
g164
Nsg165
Nssg169
(dp196
g164
F1535571320.724372
sg171
S'NOTRUN'
p197
sg165
g137
ssg165
S'\n        <p>\n            This test verifies that stability of a path is plausible given its\n            RSSI.\n        </p>\n        <p>\n            In the absence of heavy interference, the is a straightforward\n            relationship between the RSSI and stability of a path:\n            <ul>\n                <li>if the RSSI is above THRES_HIGH_RSSI, the stability is\n                expected to be above THRES_HIGH_STAB.</li>\n                <li>if the RSSI is below THRES_LOW_RSSI, the stability is expected to\n                be below THRES_LOW_STAB.</li>\n            </ul>\n        </p>\n        <p>\n            The stability is calculated as the ratio between the number of\n            packets transmitted successfully and transmission attempts; it is\n            also known as Packet Delivery Ratio (PDR).\n        </p>\n        <p>\n            This test is run once for each path in the network over which at\n            least THRES_NUM_PACKETS packet have been transmitted.\n        </p>\n        '
p198
sg174
(lp199
g197
assS'_nettest_networkReliability'
p200
(dp201
g162
(dp202
g164
F1535571320.709516
sg165
S'networkReliability=1.0 is better than the expected 0.999'
p203
ssg167
(dp204
g164
Nsg165
Nssg169
(dp205
g164
F1535571320.709516
sg171
g172
sg165
g203
ssg165
S'\n        <p>\n            This test erifies that the overall network reliability is above \n            MIN_NETWORKRELIABILITY.\n        </p>\n        <p>\n            The network reliability is the portion of the packets injected into\n            the network that were received by their final destination. If the\n            network looses data, the network reliability goes down.\n        </p>\n        <p>\n            This test is run once for the whole network.\n        </p>\n        '
p206
sg174
(lp207
g172
assS'_nettest_numGoodNeighbors'
p208
(dp209
g162
(dp210
g164
F1535571320.71032
sg165
S'PASS:<br/>mote 00-17-0d-00-00-31-59-39 has 4 good neighbors, which is more than 3.<br/>mote 00-17-0d-00-00-31-55-ff has 4 good neighbors, which is more than 3.<br/>mote 00-17-0d-00-00-31-48-d2 has 4 good neighbors, which is more than 3.<br/>mote 00-17-0d-00-00-58-30-3b has 4 good neighbors, which is more than 3.<br/>mote 00-17-0d-00-00-31-57-54 has 4 good neighbors, which is more than 3.'
p211
ssg167
(dp212
g164
Nsg165
Nssg169
(dp213
g164
F1535571320.71032
sg171
g172
sg165
g211
ssg165
S'\n        <p>\n            This test verifies that each mote has enough good neighbors.\n        </p>\n        <p>\n            The manager can build a robust network if each mote in the network\n            has at least MIN_NUMGOODNEIGHBORS neighbors.\n        </p>\n        <p>\n            This test is run once for each mote in the network.\n        </p>\n        '
p214
sg174
(lp215
g172
assS'_nettest_networkAvailability'
p216
(dp217
g162
(dp218
g164
Nsg165
Nssg167
(dp219
g164
Nsg165
Nssg169
(dp220
g164
F1535571320.708273
sg171
g197
sg165
S'This test could not run because no packets were sent in the network (yet?) (numTxOk==0 for the network) and so it is impossible to calculate a ratio.'
p221
ssg165
S"\n        <p>\n            This test verifies that the overall network availability is above \n            MIN_NETWORKAVAILABILITY.\n        </p>\n        <p>\n            The network availability is the portion of the packets generated by\n            the motes' apps, which were actually sent into the network. If the\n            protocol stack is busy, it will reject the application's data,\n            resulting in a lower availability.\n        </p>\n        <p>\n            This test is run once for the whole network.\n        </p>\n        "
p222
sg174
(lp223
g197
assS'_nettest_perMoteAvailability'
p224
(dp225
g162
(dp226
g164
Nsg165
Nssg167
(dp227
g164
Nsg165
Nssg169
(dp228
g164
F1535571320.723637
sg171
g197
sg165
S"NOTRUN:<br/>This test could not run because mote 00-17-0d-00-00-31-59-39 did not report any numTxOk counter (the counters it did report are ['assignedBw', 'numGoodNbrs', 'requestedBw', 'packetsReceived', 'totalNeededBw', 'state', 'isRouting', 'avgLatency', 'numNbrs', 'moteId', 'packetsLost', 'isAP']).<br/>This test could not run because mote 00-17-0d-00-00-31-55-ff did not report any numTxOk counter (the counters it did report are ['assignedBw', 'numGoodNbrs', 'requestedBw', 'packetsReceived', 'totalNeededBw', 'state', 'isRouting', 'avgLatency', 'numNbrs', 'moteId', 'packetsLost', 'isAP']).<br/>This test could not run because mote 00-17-0d-00-00-31-48-d2 did not report any numTxOk counter (the counters it did report are ['assignedBw', 'numGoodNbrs', 'requestedBw', 'packetsReceived', 'totalNeededBw', 'state', 'isRouting', 'avgLatency', 'numNbrs', 'moteId', 'packetsLost', 'isAP']).<br/>This test could not run because mote 00-17-0d-00-00-31-57-54 did not report any numTxOk counter (the counters it did report are ['assignedBw', 'numGoodNbrs', 'requestedBw', 'packetsReceived', 'totalNeededBw', 'state', 'isRouting', 'avgLatency', 'numNbrs', 'moteId', 'packetsLost', 'isAP'])."
p229
ssg165
S"\n        <p>\n            This test verifies that the availability for each mote is above \n            MIN_MOTEAVAILABILITY.\n        </p>\n        <p>\n            The mote availability is the portion of the packets generated by\n            the mote's application which were actually sent into the network.\n            If the mote's protocol stack is busy, it will reject the\n            application's data, resulting in a lower availability.\n        </p>\n        <p>\n            This test is run once for each mote in the network.\n        </p>\n        "
p230
sg174
(lp231
g197
asssssS'dataflows'
p232
(dp233
g44
(dp234
g46
(dp235
S'maxNumFlows'
p236
I100
sS'maxNumHistory'
p237
(dp238
g49
I10
sS'accept'
p239
I10
sS'error'
p240
I10
sssS'flows'
p241
Nsssg30
(dp242
g44
(dp243
g46
NsS'paths'
p244
(dp245
((I0
I23
I13
I0
I0
I49
I85
I255
tp246
(I0
I23
I13
I0
I0
I49
I89
I57
tp247
tp248
(dp249
g46
(dp250
S'direction'
p251
I3
sS'rssiDestSrc'
p252
I-43
sS'pathId'
p253
I3
sS'numLinks'
p254
I1
sS'quality'
p255
I97
sS'rssiSrcDest'
p256
I-42
ssS'links'
p257
NsS'actions'
p258
Nss((I0
I23
I13
I0
I0
I88
I48
I59
tp259
(I0
I23
I13
I0
I0
I49
I85
I255
tp260
tp261
(dp262
g46
(dp263
g251
I3
sg252
I-46
sg253
I2
sg254
I2
sg255
I97
sg256
I0
ssg257
Nsg258
Nss((I0
I23
I13
I0
I0
I49
I87
I84
tp264
(I0
I23
I13
I0
I0
I49
I89
I57
tp265
tp266
(dp267
g46
(dp268
g251
I2
sg252
I0
sg253
I3
sg254
I0
sg255
I74
sg256
I0
ssg257
Nsg258
Nss((I0
I23
I13
I0
I0
I49
I89
I57
tp269
(I0
I23
I13
I0
I0
I49
I72
I210
tp270
tp271
(dp272
g46
(dp273
g251
I1
sg252
I0
sg253
I5
sg254
I0
sg255
I74
sg256
I0
ssg257
Nsg258
Nss((I0
I23
I13
I0
I0
I49
I87
I84
tp274
(I0
I23
I13
I0
I0
I49
I72
I210
tp275
tp276
(dp277
g46
(dp278
g251
I3
sg252
I-60
sg253
I5
sg254
I1
sg255
I94
sg256
I-65
ssg257
Nsg258
Nss((I0
I23
I13
I0
I0
I49
I72
I210
tp279
(I0
I23
I13
I0
I0
I49
I89
I57
tp280
tp281
(dp282
g46
(dp283
g251
I1
sg252
I0
sg253
I3
sg254
I0
sg255
I74
sg256
I0
ssg257
Nsg258
Nss((I0
I23
I13
I0
I0
I49
I72
I210
tp284
(I0
I23
I13
I0
I0
I88
I48
I59
tp285
tp286
(dp287
g46
(dp288
g251
I2
sg254
I1
sg252
I0
sS'neighborFlag'
p289
I0
sg253
I1
sS'neighborId'
p290
I1
sS'numTxFailures'
p291
I0
sS'rssi'
p292
I-53
sS'numTxPackets'
p293
I93
sg255
I97
sS'numRxPackets'
p294
I6
sg256
I-55
ssg257
Nsg258
Nss((I0
I23
I13
I0
I0
I49
I89
I57
tp295
(I0
I23
I13
I0
I0
I49
I85
I255
tp296
tp297
(dp298
g46
(dp299
g251
I2
sg252
I-42
sg253
I2
sg254
I1
sg255
I97
sg256
I-43
ssg257
Nsg258
Nss((I0
I23
I13
I0
I0
I49
I89
I57
tp300
(I0
I23
I13
I0
I0
I49
I87
I84
tp301
tp302
(dp303
g46
(dp304
g251
I1
sg252
I0
sg253
I4
sg254
I0
sg255
I74
sg256
I0
ssg257
Nsg258
Nss((I0
I23
I13
I0
I0
I88
I48
I59
tp305
(I0
I23
I13
I0
I0
I49
I89
I57
tp306
tp307
(dp308
g46
(dp309
g251
I3
sg252
I-50
sg253
I3
sg254
I1
sg255
I97
sg256
I0
ssg257
Nsg258
Nss((I0
I23
I13
I0
I0
I49
I85
I255
tp310
(I0
I23
I13
I0
I0
I49
I87
I84
tp311
tp312
(dp313
g46
(dp314
g251
I3
sg252
I-47
sg253
I4
sg254
I1
sg255
I97
sg256
I-44
ssg257
Nsg258
Nss((I0
I23
I13
I0
I0
I49
I89
I57
tp315
(I0
I23
I13
I0
I0
I88
I48
I59
tp316
tp317
(dp318
g46
(dp319
g251
I2
sg252
I0
sg253
I1
sg254
I1
sg255
I97
sg256
I-50
ssg257
Nsg258
Nss((I0
I23
I13
I0
I0
I49
I85
I255
tp320
(I0
I23
I13
I0
I0
I88
I48
I59
tp321
tp322
(dp323
g46
(dp324
g251
I2
sg252
I0
sg253
I1
sg254
I2
sg255
I97
sg256
I-46
ssg257
Nsg258
Nss((I0
I23
I13
I0
I0
I49
I87
I84
tp325
(I0
I23
I13
I0
I0
I49
I85
I255
tp326
tp327
(dp328
g46
(dp329
g251
I2
sg252
I-44
sg253
I2
sg254
I1
sg255
I97
sg256
I-47
ssg257
Nsg258
Nss((I0
I23
I13
I0
I0
I49
I72
I210
tp330
(I0
I23
I13
I0
I0
I49
I87
I84
tp331
tp332
(dp333
g46
(dp334
g251
I2
sg254
I1
sg252
I-65
sg289
I0
sg253
I4
sg290
I4
sg291
I5
sg292
I-63
sg293
I95
sg255
I94
sg294
I3
sg256
I-60
ssg257
Nsg258
Nss((I0
I23
I13
I0
I0
I49
I85
I255
tp335
(I0
I23
I13
I0
I0
I49
I72
I210
tp336
tp337
(dp338
g46
(dp339
g251
I1
sg252
I0
sg253
I5
sg254
I0
sg255
I74
sg256
I0
ssg257
Nsg258
Nss((I0
I23
I13
I0
I0
I88
I48
I59
tp340
(I0
I23
I13
I0
I0
I49
I72
I210
tp341
tp342
(dp343
g46
(dp344
g251
I3
sg252
I-55
sg253
I5
sg254
I1
sg255
I97
sg256
I0
ssg257
Nsg258
Nss((I0
I23
I13
I0
I0
I49
I72
I210
tp345
(I0
I23
I13
I0
I0
I49
I85
I255
tp346
tp347
(dp348
g46
(dp349
g251
I1
sg252
I0
sg253
I2
sg254
I0
sg255
I74
sg256
I0
ssg257
Nsg258
NsssS'motes'
p350
(dp351
(I0
I23
I13
I0
I0
I49
I89
I57
tp352
Ns(I0
I23
I13
I0
I0
I49
I85
I255
tp353
Ns(I0
I23
I13
I0
I0
I49
I72
I210
tp354
Ns(I0
I23
I13
I0
I0
I88
I48
I59
tp355
Ns(I0
I23
I13
I0
I0
I49
I87
I84
tp356
Nssssg22
(dp357
(I0
I23
I13
I0
I0
I49
I89
I57
tp358
(dp359
g46
(dp360
S'assignedBw'
p361
I7722
sS'numGoodNbrs'
p362
I4
sS'requestedBw'
p363
I8826
sS'packetsReceived'
p364
I1752
sS'totalNeededBw'
p365
I8826
sg134
I4
sS'isRouting'
p366
I01
sS'avgLatency'
p367
I800
sS'numNbrs'
p368
I4
sS'moteId'
p369
I3
sS'packetsLost'
p370
I0
sS'isAP'
p371
I00
ssS'apps'
p372
(dp373
S'DC2126A'
p374
(dp375
S'maxNumDataPointsStored'
p376
I100
sS'numDataPointsReceived'
p377
I0
sS'appData'
p378
NssS'OAPTemperature'
p379
(dp380
g376
I100
sg377
I692
sg378
(dp381
F1535564809.182572
(dp382
g63
I2378
ssF1535571468.432598
(dp383
g63
I2338
ssF1535570957.797053
(dp384
g63
I2317
ssF1535569938.586534
(dp385
g63
I2338
ssF1535565348.645685
(dp386
g63
I2378
ssF1535564838.408034
(dp387
g63
I2419
ssF1535570988.684842
(dp388
g63
I2317
ssF1535569969.073349
(dp389
g63
I2317
ssF1535565378.190825
(dp390
g63
I2378
ssF1535564868.892085
(dp391
g63
I2399
ssF1535571019.168678
(dp392
g63
I2317
ssF1535569998.29806
(dp393
g63
I2338
ssF1535565408.357135
(dp394
g63
I2419
ssF1535564898.119426
(dp395
g63
I2378
ssF1535571048.393944
(dp396
g63
I2358
ssF1535570028.785036
(dp397
g63
I2338
ssF1535565439.243152
(dp398
g63
I2358
ssF1535564928.606789
(dp399
g63
I2399
ssF1535571078.878997
(dp400
g63
I2338
ssF1535570058.009822
(dp401
g63
I2338
ssF1535569549.892532
(dp402
g63
I2317
ssF1535565469.205845
(dp403
g63
I2399
ssF1535564959.494016
(dp404
g63
I2399
ssF1535571108.105067
(dp405
g63
I2338
ssF1535570599.158144
(dp406
g63
I2338
ssF1535570088.496231
(dp407
g63
I2338
ssF1535569578.25895
(dp408
g63
I2338
ssF1535567537.789066
(dp409
g63
I2277
ssF1535565498.953741
(dp410
g63
I2378
ssF1535564988.3175
(dp411
g63
I2358
ssF1535571138.591528
(dp412
g63
I2378
ssF1535570628.353052
(dp413
g63
I2338
ssF1535570119.381547
(dp414
g63
I2317
ssF1535569608.746008
(dp415
g63
I2338
ssF1535567568.662351
(dp416
g63
I2297
ssF1535565528.178999
(dp417
g63
I2399
ssF1535565019.200987
(dp418
g63
I2338
ssF1535564508.565759
(dp419
g63
I2378
ssF1535570658.84245
(dp420
g63
I2317
ssF1535570148.606389
(dp421
g63
I2378
ssF1535569637.970277
(dp422
g63
I2338
ssF1535567599.146322
(dp423
g63
I2277
ssF1535565558.665136
(dp424
g63
I2378
ssF1535565048.427114
(dp425
g63
I2358
ssF1535564537.791859
(dp426
g63
I2419
ssF1535571198.701893
(dp427
g63
I2338
ssF1535570688.066591
(dp428
g63
I2338
ssF1535570179.093363
(dp429
g63
I2378
ssF1535569668.456576
(dp430
g63
I2338
ssF1535565587.890132
(dp431
g63
I2399
ssF1535565078.913573
(dp432
g63
I2399
ssF1535564568.404605
(dp433
g63
I2399
ssF1535571230.059837
(dp434
g63
I2338
ssF1535570208.317572
(dp435
g63
I2338
ssF1535569699.342739
(dp436
g63
I2317
ssF1535565618.376657
(dp437
g63
I2358
ssF1535565108.138549
(dp438
g63
I2419
ssF1535564599.161815
(dp439
g63
I2358
ssF1535571258.413181
(dp440
g63
I2358
ssF1535570747.777538
(dp441
g63
I2358
ssF1535570238.804232
(dp442
g63
I2378
ssF1535569728.567379
(dp443
g63
I2378
ssF1535565649.262007
(dp444
g63
I2399
ssF1535565138.624951
(dp445
g63
I2399
ssF1535564628.388693
(dp446
g63
I2399
ssF1535571288.899414
(dp447
g63
I2358
ssF1535570779.303693
(dp448
g63
I2338
ssF1535570268.029163
(dp449
g63
I2338
ssF1535569759.053444
(dp450
g63
I2338
ssF1535565678.489952
(dp451
g63
I2378
ssF1535565167.849828
(dp452
g63
I2399
ssF1535564658.875128
(dp453
g63
I2439
ssF1535571318.876788
(dp454
g63
I2358
ssF1535570809.149798
(dp455
g63
I2338
ssF1535570298.516006
(dp456
g63
I2358
ssF1535569788.278318
(dp457
g63
I2358
ssF1535565198.336928
(dp458
g63
I2399
ssF1535564688.099765
(dp459
g63
I2439
ssF1535571348.611027
(dp460
g63
I2358
ssF1535570838.37188
(dp461
g63
I2399
ssF1535570329.40107
(dp462
g63
I2338
ssF1535569818.765091
(dp463
g63
I2378
ssF1535565229.222263
(dp464
g63
I2378
ssF1535564718.586581
(dp465
g63
I2399
ssF1535571377.836636
(dp466
g63
I2358
ssF1535570869.994723
(dp467
g63
I2338
ssF1535570358.625911
(dp468
g63
I2358
ssF1535569847.990216
(dp469
g63
I2358
ssF1535565258.447676
(dp470
g63
I2399
ssF1535564747.811566
(dp471
g63
I2419
ssF1535571408.322608
(dp472
g63
I2317
ssF1535570898.086674
(dp473
g63
I2338
ssF1535570389.113161
(dp474
g63
I2358
ssF1535569878.477606
(dp475
g63
I2358
ssF1535565288.9343
(dp476
g63
I2378
ssF1535564778.297953
(dp477
g63
I2439
ssF1535571439.207832
(dp478
g63
I2338
ssF1535570928.572058
(dp479
g63
I2338
ssF1535570418.337195
(dp480
g63
I2338
ssF1535569909.363037
(dp481
g63
I2317
ssssS'OAPLED'
p482
(dp483
g376
I100
sg377
I0
sg378
NssS'LIS331'
p484
(dp485
g376
I100
sg377
I0
sg378
Nssss(I0
I23
I13
I0
I0
I49
I85
I255
tp486
(dp487
g46
(dp488
g361
I3432
sg362
I4
sg363
I8826
sg364
I1756
sg365
I3636
sg134
I4
sg366
I01
sg367
I590
sg368
I4
sg369
I2
sg370
I0
sg371
I00
ssg372
(dp489
g374
(dp490
g376
I100
sg377
I0
sg378
Nssg379
(dp491
g376
I100
sg377
I662
sg378
(dp492
F1535569923.774963
(dp493
g63
I2338
ssF1535565332.173533
(dp494
g63
I2338
ssF1535564823.597692
(dp495
g63
I2358
ssF1535570972.740032
(dp496
g63
I2277
ssF1535565363.058786
(dp497
g63
I2338
ssF1535564852.423288
(dp498
g63
I2358
ssF1535571002.698139
(dp499
g63
I2358
ssF1535569982.355172
(dp500
g63
I2358
ssF1535565392.813028
(dp501
g63
I2317
ssF1535564882.176601
(dp502
g63
I2358
ssF1535564372.672369
(dp503
g63
I2338
ssF1535571032.450939
(dp504
g63
I2338
ssF1535570012.31307
(dp505
g63
I2317
ssF1535565422.773231
(dp506
g63
I2378
ssF1535564912.133641
(dp507
g63
I2399
ssF1535564402.425416
(dp508
g63
I2378
ssF1535571062.417117
(dp509
g63
I2297
ssF1535570042.067287
(dp510
g63
I2338
ssF1535564943.017047
(dp511
g63
I2378
ssF1535564432.382142
(dp512
g63
I2358
ssF1535571092.162239
(dp513
g63
I2338
ssF1535570072.952203
(dp514
g63
I2358
ssF1535569562.316361
(dp515
g63
I2338
ssF1535565482.47913
(dp516
g63
I2338
ssF1535564972.772875
(dp517
g63
I2378
ssF1535564462.137668
(dp518
g63
I2378
ssF1535571122.120529
(dp519
g63
I2358
ssF1535570612.407278
(dp520
g63
I2358
ssF1535570102.909437
(dp521
g63
I2338
ssF1535569592.272901
(dp522
g63
I2358
ssF1535567552.719562
(dp523
g63
I2277
ssF1535565512.23606
(dp524
g63
I2358
ssF1535565002.729124
(dp525
g63
I2338
ssF1535564492.095117
(dp526
g63
I2317
ssF1535571153.004485
(dp527
g63
I2358
ssF1535570642.368348
(dp528
g63
I2317
ssF1535570133.795276
(dp529
g63
I2297
ssF1535569623.158674
(dp530
g63
I2317
ssF1535567582.676924
(dp531
g63
I2297
ssF1535565542.193645
(dp532
g63
I2317
ssF1535565033.615208
(dp533
g63
I2378
ssF1535564522.980112
(dp534
g63
I2358
ssF1535571182.759982
(dp535
g63
I2338
ssF1535570672.123185
(dp536
g63
I2297
ssF1535570162.622288
(dp537
g63
I2358
ssF1535569652.912585
(dp538
g63
I2317
ssF1535565573.078453
(dp539
g63
I2378
ssF1535565062.441377
(dp540
g63
I2338
ssF1535564552.734196
(dp541
g63
I2378
ssF1535571212.716076
(dp542
g63
I2358
ssF1535570702.080346
(dp543
g63
I2358
ssF1535570193.505911
(dp544
g63
I2338
ssF1535569682.90512
(dp545
g63
I2317
ssF1535565602.832468
(dp546
g63
I2378
ssF1535565092.195779
(dp547
g63
I2358
ssF1535564582.691423
(dp548
g63
I2358
ssF1535571242.470256
(dp549
g63
I2317
ssF1535570732.965634
(dp550
g63
I2297
ssF1535570222.332095
(dp551
g63
I2358
ssF1535569713.755585
(dp552
g63
I2358
ssF1535565632.790024
(dp553
g63
I2378
ssF1535565122.153083
(dp554
g63
I2358
ssF1535564613.576682
(dp555
g63
I2378
ssF1535571272.427949
(dp556
g63
I2317
ssF1535570762.719728
(dp557
g63
I2338
ssF1535570252.086861
(dp558
g63
I2317
ssF1535569742.581913
(dp559
g63
I2338
ssF1535565663.676074
(dp560
g63
I2358
ssF1535565153.038122
(dp561
g63
I2358
ssF1535564642.402751
(dp562
g63
I2399
ssF1535570792.677464
(dp563
g63
I2297
ssF1535570282.971547
(dp564
g63
I2358
ssF1535569772.335991
(dp565
g63
I2317
ssF1535565182.792408
(dp566
g63
I2358
ssF1535564672.156871
(dp567
g63
I2378
ssF1535571332.138943
(dp568
g63
I2338
ssF1535570822.431347
(dp569
g63
I2338
ssF1535570312.928716
(dp570
g63
I2358
ssF1535569802.292687
(dp571
g63
I2297
ssF1535565212.749611
(dp572
g63
I2338
ssF1535564703.042126
(dp573
g63
I2399
ssF1535571363.025327
(dp574
g63
I2338
ssF1535570342.683628
(dp575
g63
I2317
ssF1535569833.175525
(dp576
g63
I2358
ssF1535565243.636012
(dp577
g63
I2399
ssF1535564732.999594
(dp578
g63
I2378
ssF1535571392.778413
(dp579
g63
I2358
ssF1535570882.145121
(dp580
g63
I2338
ssF1535570372.640309
(dp581
g63
I2358
ssF1535569862.932663
(dp582
g63
I2317
ssF1535565272.46224
(dp583
g63
I2338
ssF1535564762.754051
(dp584
g63
I2378
ssF1535571422.736153
(dp585
g63
I2317
ssF1535570912.100224
(dp586
g63
I2338
ssF1535570403.52568
(dp587
g63
I2297
ssF1535569892.890093
(dp588
g63
I2317
ssF1535565302.214385
(dp589
g63
I2378
ssF1535564792.710823
(dp590
g63
I2358
ssF1535571453.621003
(dp591
g63
I2338
ssF1535570942.985238
(dp592
g63
I2317
ssssg482
(dp593
g376
I100
sg377
I0
sg378
Nssg484
(dp594
g376
I100
sg377
I0
sg378
Nssss(I0
I23
I13
I0
I0
I49
I72
I210
tp595
(dp596
g46
(dp597
g361
I7722
sg362
I4
sg363
I8826
sg364
I1712
sg365
I8826
sg134
I4
sg366
I01
sg367
I970
sg368
I4
sg369
I5
sg370
I0
sg371
I00
ssg372
(dp598
g374
(dp599
g376
I100
sg377
I0
sg378
Nssg379
(dp600
g376
I100
sg377
I626
sg378
(dp601
F1535569922.643831
(dp602
g63
I2317
ssF1535564822.464889
(dp603
g63
I2358
ssF1535571483.44763
(dp604
g63
I2317
ssF1535570972.811879
(dp605
g63
I2338
ssF1535565362.00025
(dp606
g63
I2358
ssF1535564854.479325
(dp607
g63
I2338
ssF1535571001.638156
(dp608
g63
I2297
ssF1535569982.428391
(dp609
g63
I2297
ssF1535565393.944187
(dp610
g63
I2378
ssF1535564882.2488
(dp611
g63
I2358
ssF1535571032.523762
(dp612
g63
I2338
ssF1535570013.313328
(dp613
g63
I2338
ssF1535565421.711822
(dp614
g63
I2317
ssF1535564913.061335
(dp615
g63
I2338
ssF1535564402.497148
(dp616
g63
I2297
ssF1535571063.337006
(dp617
g63
I2317
ssF1535570042.139614
(dp618
g63
I2297
ssF1535565334.232761
(dp619
g63
I2317
ssF1535570284.103123
(dp620
g63
I2317
ssF1535564941.960633
(dp621
g63
I2338
ssF1535564433.826013
(dp622
g63
I2399
ssF1535571092.234621
(dp623
g63
I2358
ssF1535569562.38844
(dp624
g63
I2338
ssF1535565483.409581
(dp625
g63
I2317
ssF1535564973.904074
(dp626
g63
I2338
ssF1535564462.210154
(dp627
g63
I2297
ssF1535571123.048366
(dp628
g63
I2338
ssF1535570612.480363
(dp629
g63
I2317
ssF1535570101.850652
(dp630
g63
I2297
ssF1535569593.200816
(dp631
g63
I2297
ssF1535567553.850622
(dp632
g63
I2317
ssF1535565512.3085
(dp633
g63
I2317
ssF1535565001.671923
(dp634
g63
I2399
ssF1535564493.022956
(dp635
g63
I2338
ssF1535571151.946114
(dp636
g63
I2317
ssF1535570643.297328
(dp637
g63
I2358
ssF1535570132.663507
(dp638
g63
I2317
ssF1535569622.100084
(dp639
g63
I2317
ssF1535567581.61788
(dp640
g63
I2277
ssF1535565543.1211
(dp641
g63
I2317
ssF1535565032.484713
(dp642
g63
I2358
ssF1535564521.921724
(dp643
g63
I2317
ssF1535571183.889901
(dp644
g63
I2317
ssF1535570672.195907
(dp645
g63
I2297
ssF1535570163.549382
(dp646
g63
I2317
ssF1535569654.043427
(dp647
g63
I2317
ssF1535565572.019872
(dp648
g63
I2338
ssF1535565063.369662
(dp649
g63
I2338
ssF1535564553.249052
(dp650
g63
I2358
ssF1535571211.657556
(dp651
g63
I2317
ssF1535570703.009615
(dp652
g63
I2338
ssF1535570192.4476
(dp653
g63
I2297
ssF1535569681.809185
(dp654
g63
I2297
ssF1535565603.963892
(dp655
g63
I2338
ssF1535565092.268035
(dp656
g63
I2358
ssF1535564581.633305
(dp657
g63
I2338
ssF1535571242.542654
(dp658
g63
I2317
ssF1535570731.907396
(dp659
g63
I2317
ssF1535570223.260959
(dp660
g63
I2317
ssF1535569712.624601
(dp661
g63
I2277
ssF1535565631.731298
(dp662
g63
I2338
ssF1535565123.080769
(dp663
g63
I2338
ssF1535564612.445954
(dp664
g63
I2358
ssF1535571273.353665
(dp665
g63
I2338
ssF1535570762.792384
(dp666
g63
I2277
ssF1535570252.159256
(dp667
g63
I2317
ssF1535569743.582202
(dp668
g63
I2317
ssF1535565662.545147
(dp669
g63
I2358
ssF1535565151.979768
(dp670
g63
I2317
ssF1535564643.331261
(dp671
g63
I2317
ssF1535570793.605137
(dp672
g63
I2338
ssF1535569772.407954
(dp673
g63
I2317
ssF1535565183.955468
(dp674
g63
I2297
ssF1535564672.229378
(dp675
g63
I2338
ssF1535571333.067294
(dp676
g63
I2338
ssF1535570822.504271
(dp677
g63
I2317
ssF1535570311.870205
(dp678
g63
I2317
ssF1535569803.221379
(dp679
g63
I2317
ssF1535565211.69083
(dp680
g63
I2317
ssF1535570074.083521
(dp681
g63
I2338
ssF1535564704.173596
(dp682
g63
I2358
ssF1535571361.963973
(dp683
g63
I2297
ssF1535570343.813937
(dp684
g63
I2317
ssF1535569832.119391
(dp685
g63
I2338
ssF1535565242.504659
(dp686
g63
I2338
ssF1535564731.941687
(dp687
g63
I2317
ssF1535571393.909903
(dp688
g63
I2317
ssF1535570882.215337
(dp689
g63
I2297
ssF1535570373.568148
(dp690
g63
I2297
ssF1535569863.004844
(dp691
g63
I2338
ssF1535565273.390079
(dp692
g63
I2358
ssF1535564763.88461
(dp693
g63
I2378
ssF1535571421.677371
(dp694
g63
I2317
ssF1535570913.028062
(dp695
g63
I2297
ssF1535570402.924936
(dp696
g63
I2297
ssF1535569891.832002
(dp697
g63
I2338
ssF1535565302.286531
(dp698
g63
I2338
ssF1535564791.652177
(dp699
g63
I2338
ssF1535571452.489727
(dp700
g63
I2317
ssF1535570941.927887
(dp701
g63
I2338
ssssg482
(dp702
g376
I100
sg377
I0
sg378
Nssg484
(dp703
g376
I100
sg377
I0
sg378
Nssss(I0
I23
I13
I0
I0
I88
I48
I59
tp704
(dp705
g46
(dp706
g361
I0
sg362
I4
sg363
I61770
sg364
I11
sg365
I1872
sg134
I4
sg366
I01
sg367
I0
sg368
I4
sg369
I1
sg370
I0
sg371
I01
ssg372
Nss(I0
I23
I13
I0
I0
I49
I87
I84
tp707
(dp708
g46
(dp709
g361
I5148
sg362
I4
sg363
I8826
sg364
I1756
sg365
I5616
sg134
I4
sg366
I01
sg367
I870
sg368
I4
sg369
I4
sg370
I0
sg371
I00
ssg372
(dp710
g374
(dp711
g376
I100
sg377
I0
sg378
Nssg379
(dp712
g376
I100
sg377
I689
sg378
(dp713
F1535564808.566505
(dp714
g63
I2399
ssF1535570958.326276
(dp715
g63
I2338
ssF1535569937.571806
(dp716
g63
I2317
ssF1535565348.029857
(dp717
g63
I2378
ssF1535564838.937222
(dp718
g63
I2378
ssF1535570987.667343
(dp719
g63
I2297
ssF1535569968.457617
(dp720
g63
I2277
ssF1535570357.610851
(dp721
g63
I2317
ssF1535565379.036148
(dp722
g63
I2378
ssF1535564868.277917
(dp723
g63
I2378
ssF1535571018.5524
(dp724
g63
I2338
ssF1535569998.827317
(dp725
g63
I2317
ssF1535565407.740906
(dp726
g63
I2338
ssF1535564898.648362
(dp727
g63
I2317
ssF1535571048.922931
(dp728
g63
I2297
ssF1535570028.168604
(dp729
g63
I2338
ssF1535565438.626322
(dp730
g63
I2338
ssF1535564927.990687
(dp731
g63
I2338
ssF1535571078.264204
(dp732
g63
I2317
ssF1535570058.539008
(dp733
g63
I2338
ssF1535569548.854875
(dp734
g63
I2297
ssF1535565469.209104
(dp735
g63
I2378
ssF1535564958.359806
(dp736
g63
I2358
ssF1535571109.14932
(dp737
g63
I2277
ssF1535570598.509632
(dp738
g63
I2338
ssF1535570087.880029
(dp739
g63
I2317
ssF1535569578.787736
(dp740
g63
I2317
ssF1535567538.326648
(dp741
g63
I2297
ssF1535565498.337475
(dp742
g63
I2358
ssF1535564987.701717
(dp743
g63
I2378
ssF1535564478.610826
(dp744
g63
I2317
ssF1535571137.975408
(dp745
g63
I2338
ssF1535570628.882282
(dp746
g63
I2297
ssF1535570118.250518
(dp747
g63
I2338
ssF1535569608.126316
(dp748
g63
I2358
ssF1535567567.647121
(dp749
g63
I2297
ssF1535565528.707776
(dp750
g63
I2358
ssF1535565018.585017
(dp751
g63
I2317
ssF1535564507.949222
(dp752
g63
I2317
ssF1535570658.22494
(dp753
g63
I2297
ssF1535570147.589592
(dp754
g63
I2317
ssF1535569638.499814
(dp755
g63
I2338
ssF1535567598.52974
(dp756
g63
I2338
ssF1535565558.048981
(dp757
g63
I2378
ssF1535565048.95626
(dp758
g63
I2358
ssF1535564538.32144
(dp759
g63
I2378
ssF1535571197.687889
(dp760
g63
I2297
ssF1535570688.595214
(dp761
g63
I2297
ssF1535570178.476687
(dp762
g63
I2317
ssF1535569667.84031
(dp763
g63
I2317
ssF1535565588.419407
(dp764
g63
I2317
ssF1535565078.297432
(dp765
g63
I2358
ssF1535564567.728024
(dp766
g63
I2378
ssF1535571229.376794
(dp767
g63
I2338
ssF1535570208.846907
(dp768
g63
I2317
ssF1535569698.210887
(dp769
g63
I2317
ssF1535565617.76045
(dp770
g63
I2317
ssF1535565108.66772
(dp771
g63
I2338
ssF1535564598.545233
(dp772
g63
I2317
ssF1535571258.942226
(dp773
g63
I2338
ssF1535570748.306772
(dp774
g63
I2338
ssF1535570238.188391
(dp775
g63
I2338
ssF1535569727.551865
(dp776
g63
I2277
ssF1535565648.130811
(dp777
g63
I2358
ssF1535565138.008663
(dp778
g63
I2358
ssF1535564628.919089
(dp779
g63
I2378
ssF1535571288.283553
(dp780
g63
I2338
ssF1535570778.634911
(dp781
g63
I2317
ssF1535570268.558397
(dp782
g63
I2297
ssF1535569758.437129
(dp783
g63
I2317
ssF1535565679.018452
(dp784
g63
I2317
ssF1535565168.379017
(dp785
g63
I2358
ssF1535564658.259239
(dp786
g63
I2378
ssF1535571319.039448
(dp787
g63
I2338
ssF1535570808.532926
(dp788
g63
I2317
ssF1535570297.899615
(dp789
g63
I2317
ssF1535569788.807569
(dp790
g63
I2297
ssF1535565197.720334
(dp791
g63
I2378
ssF1535564688.629293
(dp792
g63
I2358
ssF1535571347.994895
(dp793
g63
I2317
ssF1535570838.900984
(dp794
g63
I2297
ssF1535570328.270545
(dp795
g63
I2317
ssF1535569818.148842
(dp796
g63
I2338
ssF1535565228.606084
(dp797
g63
I2358
ssF1535564717.971863
(dp798
g63
I2338
ssF1535571378.365478
(dp799
g63
I2256
ssF1535570869.178071
(dp800
g63
I2297
ssF1535569848.519442
(dp801
g63
I2317
ssF1535565258.977178
(dp802
g63
I2358
ssF1535564748.34083
(dp803
g63
I2378
ssF1535571407.70626
(dp804
g63
I2297
ssF1535570898.614881
(dp805
g63
I2338
ssF1535570388.496478
(dp806
g63
I2317
ssF1535569877.860079
(dp807
g63
I2338
ssF1535565288.315446
(dp808
g63
I2399
ssF1535564777.681654
(dp809
g63
I2338
ssF1535571438.591986
(dp810
g63
I2317
ssF1535570927.955928
(dp811
g63
I2297
ssF1535570418.866424
(dp812
g63
I2317
ssF1535569908.230932
(dp813
g63
I2297
ssssg482
(dp814
g376
I100
sg377
I0
sg378
Nssg484
(dp815
g376
I100
sg377
I0
sg378
Nsssss.